; Function Attrs: mustprogress uwtable
define void @_ZN6icu_7717GregorianCalendarC2ERKNS_6LocaleER10UErrorCode(ptr noundef nonnull align 8 dereferenceable(222) %0, ptr noundef nonnull align 8 dereferenceable(217) %1, ptr noundef nonnull align 4 dereferenceable(4) %2) unnamed_addr #1 align 2 personality ptr @__gxx_personality_v0 {
  %4 = tail call noundef ptr @_ZN6icu_778TimeZone18forLocaleOrDefaultERKNS_6LocaleE(ptr noundef nonnull align 8 dereferenceable(217) %1)
  tail call void @_ZN6icu_778CalendarC2EPNS_8TimeZoneERKNS_6LocaleER10UErrorCode(ptr noundef nonnull align 8 dereferenceable(222) %0, ptr noundef %4, ptr noundef nonnull align 8 dereferenceable(217) %1, ptr noundef nonnull align 4 dereferenceable(4) %2)
  store ptr getelementptr inbounds nuw inrange(-16, 480) (i8, ptr @_ZTVN6icu_7717GregorianCalendarE, i64 16), ptr %0, align 8, !tbaa !3
  %5 = getelementptr inbounds nuw i8, ptr %0, i64 192
  store double 0xC2A63A0D36A80000, ptr %5, align 8, !tbaa !6
  %6 = getelementptr inbounds nuw i8, ptr %0, i64 200
  store i32 2299161, ptr %6, align 8, !tbaa !20
  %7 = getelementptr inbounds nuw i8, ptr %0, i64 208
  store double 0xC2A63A0D36A80000, ptr %7, align 8, !tbaa !21
  %8 = getelementptr inbounds nuw i8, ptr %0, i64 216
  store i32 1582, ptr %8, align 8, !tbaa !22
  %9 = getelementptr inbounds nuw i8, ptr %0, i64 220
  store i8 1, ptr %9, align 4, !tbaa !23
  %10 = getelementptr inbounds nuw i8, ptr %0, i64 221
  store i8 0, ptr %10, align 1, !tbaa !24
  %11 = invoke noundef double @_ZN6icu_778Calendar6getNowEv()
          to label %12 unwind label %13

12:                                               ; preds = %3
  invoke void @_ZN6icu_778Calendar15setTimeInMillisEdR10UErrorCode(ptr noundef nonnull align 8 dereferenceable(222) %0, double noundef %11, ptr noundef nonnull align 4 dereferenceable(4) %2)
          to label %_ZN6icu_7717GregorianCalendarC2EPNS_8TimeZoneERKNS_6LocaleER10UErrorCode.exit unwind label %13

13:                                               ; preds = %12, %3
  %14 = landingpad { ptr, i32 }
          cleanup
  tail call void @_ZN6icu_778CalendarD2Ev(ptr noundef nonnull align 8 dereferenceable(222) %0) #9
  resume { ptr, i32 } %14

_ZN6icu_7717GregorianCalendarC2EPNS_8TimeZoneERKNS_6LocaleER10UErrorCode.exit: ; preds = %12
  ret void
}